Certificate:
    Data:
        Version: 3 (0x2)
        Serial Number:
            d7:61:51:27:b5:6c:db:8e:93:4d:7c:53:22:4e:48:6e
    Signature Algorithm: sha256WithRSAEncryption
        Issuer: CN=Easy-RSA CA
        Validity
            Not Before: Jul 12 07:21:43 2019 GMT
            Not After : Jun 26 07:21:43 2022 GMT
        Subject: CN=client
        Subject Public Key Info:
            Public Key Algorithm: rsaEncryption
                Public-Key: (2048 bit)
                Modulus:
                    00:96:6b:4d:76:64:88:ba:d5:d5:6d:f5:87:91:3d:
                    9e:bd:a8:08:33:ca:aa:31:9a:c5:96:fd:0b:e6:a2:
                    a1:03:cc:95:f5:df:7c:b6:d1:73:7c:7a:2d:ea:17:
                    7e:5d:69:96:f7:0d:a7:48:d1:71:52:32:26:79:ee:
                    90:f3:ea:d6:9c:49:15:7c:9d:9e:f1:52:ca:e4:a6:
                    a9:45:0a:e2:4a:41:4a:cb:58:27:21:4a:05:57:7e:
                    6e:d1:07:84:c4:14:76:b9:2f:ac:b5:32:b6:34:fd:
                    34:c7:18:16:d8:c0:7a:02:87:8a:c5:6a:3f:4c:38:
                    4a:46:11:f8:b5:4f:8d:62:1e:92:60:5d:09:e0:23:
                    0e:93:2c:c4:09:95:e8:de:7c:6b:32:3b:4f:d2:f5:
                    75:58:0e:44:ee:a8:9b:17:89:38:00:3d:ec:d5:64:
                    39:0d:67:9c:c4:61:d5:5e:68:6a:cb:bb:6a:6d:25:
                    31:d8:a3:05:78:d7:28:b3:a4:46:e0:8a:1f:8d:e9:
                    10:31:a1:5c:a3:5e:20:25:fa:74:84:75:fd:1d:d0:
                    91:cb:f5:67:cb:54:65:ac:8a:e4:9a:87:d7:75:18:
                    db:60:ef:d7:6e:3f:f6:93:a5:4d:0f:26:db:74:d4:
                    4f:51:95:53:5c:0e:8e:f8:82:d9:ac:cc:cb:c5:a0:
                    11:1f
                Exponent: 65537 (0x10001)
        X509v3 extensions:
            X509v3 Basic Constraints: 
                CA:FALSE
            X509v3 Subject Key Identifier: 
                15:77:5C:DC:2A:73:DD:2A:85:1C:28:83:DA:17:36:E0:20:F9:07:4A
            X509v3 Authority Key Identifier: 
                keyid:DE:11:DF:3D:6C:4C:A0:C9:20:9E:C2:E6:31:BB:8E:94:2C:08:3B:A6
                DirName:/CN=Easy-RSA CA
                serial:97:EC:3B:97:03:20:A0:43

            X509v3 Extended Key Usage: 
                TLS Web Client Authentication
            X509v3 Key Usage: 
                Digital Signature
    Signature Algorithm: sha256WithRSAEncryption
         78:46:6d:d1:7a:c3:db:41:3d:ed:3c:9c:57:f7:31:c9:4d:9f:
         e6:aa:93:f5:41:2b:0b:c5:2e:8c:c5:c1:f1:36:b9:64:94:59:
         40:87:d7:a9:ff:f2:8b:3e:67:4d:fb:cc:88:fe:86:68:91:5b:
         ca:40:01:b8:e7:b7:31:27:31:f4:01:ba:64:bc:f7:a6:95:ca:
         a0:49:f5:7c:1d:00:64:48:2b:63:f2:02:c8:74:9f:fe:54:c6:
         49:41:e1:a3:0e:a4:f4:14:3c:81:31:d1:d7:f6:b5:c7:35:1c:
         d4:c9:d5:e0:81:a0:60:2f:97:35:c2:ff:db:90:11:c9:56:57:
         71:0e:23:3e:53:ef:18:a4:4e:4d:74:18:da:3a:63:9f:81:3e:
         b6:ca:2e:15:67:14:99:2a:69:e2:d5:82:1f:2a:7b:c9:dc:c4:
         5c:aa:e4:95:91:25:77:9a:11:7f:af:44:9d:53:25:4c:f8:ec:
         d2:33:3c:b0:48:f4:3b:3e:87:0b:c5:22:4b:7b:78:67:a6:c9:
         39:4e:d2:b5:40:9e:72:07:ec:5e:98:e4:24:f6:ee:d1:0f:99:
         9b:ab:cb:f7:a4:b7:37:27:4d:bd:0c:6f:8f:40:46:02:af:8d:
         22:cf:28:53:6c:dd:c1:ca:4c:eb:23:f9:16:80:9c:a7:7d:36:
         00:a4:e4:53
-----BEGIN CERTIFICATE-----
MIIDSjCCAjKgAwIBAgIRANdhUSe1bNuOk018UyJOSG4wDQYJKoZIhvcNAQELBQAw
FjEUMBIGA1UEAwwLRWFzeS1SU0EgQ0EwHhcNMTkwNzEyMDcyMTQzWhcNMjIwNjI2
MDcyMTQzWjARMQ8wDQYDVQQDDAZjbGllbnQwggEiMA0GCSqGSIb3DQEBAQUAA4IB
DwAwggEKAoIBAQCWa012ZIi61dVt9YeRPZ69qAgzyqoxmsWW/QvmoqEDzJX133y2
0XN8ei3qF35daZb3DadI0XFSMiZ57pDz6tacSRV8nZ7xUsrkpqlFCuJKQUrLWCch
SgVXfm7RB4TEFHa5L6y1MrY0/TTHGBbYwHoCh4rFaj9MOEpGEfi1T41iHpJgXQng
Iw6TLMQJlejefGsyO0/S9XVYDkTuqJsXiTgAPezVZDkNZ5zEYdVeaGrLu2ptJTHY
owV41yizpEbgih+N6RAxoVyjXiAl+nSEdf0d0JHL9WfLVGWsiuSah9d1GNtg79du
P/aTpU0PJtt01E9RlVNcDo74gtmszMvFoBEfAgMBAAGjgZcwgZQwCQYDVR0TBAIw
ADAdBgNVHQ4EFgQUFXdc3Cpz3SqFHCiD2hc24CD5B0owRgYDVR0jBD8wPYAU3hHf
PWxMoMkgnsLmMbuOlCwIO6ahGqQYMBYxFDASBgNVBAMMC0Vhc3ktUlNBIENBggkA
l+w7lwMgoEMwEwYDVR0lBAwwCgYIKwYBBQUHAwIwCwYDVR0PBAQDAgeAMA0GCSqG
SIb3DQEBCwUAA4IBAQB4Rm3ResPbQT3tPJxX9zHJTZ/mqpP1QSsLxS6MxcHxNrlk
lFlAh9ep//KLPmdN+8yI/oZokVvKQAG457cxJzH0AbpkvPemlcqgSfV8HQBkSCtj
8gLIdJ/+VMZJQeGjDqT0FDyBMdHX9rXHNRzUydXggaBgL5c1wv/bkBHJVldxDiM+
U+8YpE5NdBjaOmOfgT62yi4VZxSZKmni1YIfKnvJ3MRcquSVkSV3mhF/r0SdUyVM
+OzSMzywSPQ7PocLxSJLe3hnpsk5TtK1QJ5yB+xemOQk9u7RD5mbq8v3pLc3J029
DG+PQEYCr40izyhTbN3BykzrI/kWgJynfTYApORT
-----END CERTIFICATE-----
