Certificate:
    Data:
        Version: 3 (0x2)
        Serial Number:
            12:2b:23:fd:80:ce:b2:ab:f2:ef:6b:c1:04:45:ce:c4
    Signature Algorithm: sha256WithRSAEncryption
        Issuer: CN=aws
        Validity
            Not Before: Jul 12 05:36:14 2019 GMT
            Not After : Jun 26 05:36:14 2022 GMT
        Subject: CN=client
        Subject Public Key Info:
            Public Key Algorithm: rsaEncryption
                Public-Key: (2048 bit)
                Modulus:
                    00:b9:70:9d:a8:70:3d:08:af:ad:5b:2f:9e:c0:6a:
                    7e:79:73:98:c3:5e:10:d3:1a:74:17:9e:16:30:c0:
                    a0:8d:a6:4e:46:5d:06:eb:49:88:87:dd:b9:2d:c5:
                    64:d0:4e:55:37:5d:87:6f:79:b6:0e:0f:50:a2:a3:
                    df:96:04:b0:5b:71:94:e9:3a:56:c3:c1:27:36:d6:
                    fb:15:bd:51:6f:e8:04:2b:0c:a4:24:79:2f:19:90:
                    03:6e:0c:05:19:42:5c:c6:95:30:cd:a9:17:0d:e9:
                    b3:73:c5:c7:02:c2:ee:fa:d7:74:80:85:e9:f1:ae:
                    eb:2d:41:58:6e:c5:6a:5f:a4:cb:18:f5:51:8e:63:
                    a7:f3:d1:33:e1:48:5c:7b:be:4a:72:00:5b:2f:81:
                    b9:37:e7:d6:9f:32:a3:b6:6c:b2:26:74:8f:71:eb:
                    03:9b:24:01:85:1f:29:52:d4:7a:91:cd:8d:82:c4:
                    cc:80:dd:c1:9d:34:1f:d2:1d:9f:a0:ce:7b:f0:a1:
                    67:ec:b5:7a:65:0d:31:d5:00:8f:52:1e:b8:24:e1:
                    40:c0:d4:07:dd:95:39:e4:30:6e:5b:b4:6c:64:db:
                    da:f8:87:2e:65:43:0f:bf:0e:48:4b:9b:73:c3:8e:
                    52:72:9e:9e:43:93:3d:4b:12:3b:49:66:09:f8:60:
                    89:e3
                Exponent: 65537 (0x10001)
        X509v3 extensions:
            X509v3 Basic Constraints: 
                CA:FALSE
            X509v3 Subject Key Identifier: 
                B2:95:22:48:95:B3:AD:34:B3:C2:A0:95:C0:1E:1E:A3:AC:B7:A9:26
            X509v3 Authority Key Identifier: 
                keyid:51:DD:BF:8B:22:C0:2D:B7:DB:48:EA:A0:AC:E5:6C:4B:8B:9C:C6:6C
                DirName:/CN=aws
                serial:A9:46:DB:34:6A:00:B3:C4

            X509v3 Extended Key Usage: 
                TLS Web Client Authentication
            X509v3 Key Usage: 
                Digital Signature
    Signature Algorithm: sha256WithRSAEncryption
         0c:ba:de:15:66:e7:f5:99:58:6b:11:97:e6:fc:1e:7b:82:3f:
         f4:ef:ef:7c:dd:1f:31:89:e8:10:95:0a:5b:f9:9d:6a:f5:fb:
         f2:6c:62:ce:d1:d2:ca:77:5d:66:d6:11:c2:c4:f3:ab:26:88:
         92:80:be:50:4b:52:11:7f:06:a2:a7:81:cf:2a:e6:f3:3f:0b:
         cf:4a:4d:ab:1a:5e:ac:37:44:cb:d0:a2:ea:2c:4d:6d:1a:93:
         6a:23:d9:d8:9c:16:17:78:91:bd:d4:21:64:3e:1f:9c:9e:28:
         3d:63:de:59:38:4e:d1:f8:5b:8d:98:e8:95:43:27:a8:11:be:
         55:af:c1:83:cb:67:0c:d8:19:f9:4d:8f:a1:1a:b1:47:40:b7:
         23:4a:21:20:ac:ca:d2:e1:c2:49:79:20:17:dc:54:75:2d:07:
         b9:a7:17:ed:f1:2d:1e:e8:8e:37:8b:cd:2c:97:bf:8a:8d:82:
         60:db:61:11:43:0d:0e:da:bf:d5:1f:25:2d:48:3a:ac:76:e3:
         93:de:9d:2a:e0:dc:4e:e3:4a:e1:65:49:67:47:5c:8c:45:82:
         cd:7f:0c:61:29:d4:ae:5f:a1:70:41:27:8e:d7:f6:f2:65:20:
         ef:11:42:40:ef:f0:04:cf:67:6a:c6:23:75:8f:d7:e0:22:d0:
         48:2f:80:13
-----BEGIN CERTIFICATE-----
MIIDOTCCAiGgAwIBAgIQEisj/YDOsqvy72vBBEXOxDANBgkqhkiG9w0BAQsFADAO
MQwwCgYDVQQDDANhd3MwHhcNMTkwNzEyMDUzNjE0WhcNMjIwNjI2MDUzNjE0WjAR
MQ8wDQYDVQQDDAZjbGllbnQwggEiMA0GCSqGSIb3DQEBAQUAA4IBDwAwggEKAoIB
AQC5cJ2ocD0Ir61bL57Aan55c5jDXhDTGnQXnhYwwKCNpk5GXQbrSYiH3bktxWTQ
TlU3XYdvebYOD1Cio9+WBLBbcZTpOlbDwSc21vsVvVFv6AQrDKQkeS8ZkANuDAUZ
QlzGlTDNqRcN6bNzxccCwu7613SAhenxrustQVhuxWpfpMsY9VGOY6fz0TPhSFx7
vkpyAFsvgbk359afMqO2bLImdI9x6wObJAGFHylS1HqRzY2CxMyA3cGdNB/SHZ+g
znvwoWfstXplDTHVAI9SHrgk4UDA1AfdlTnkMG5btGxk29r4hy5lQw+/DkhLm3PD
jlJynp5Dkz1LEjtJZgn4YInjAgMBAAGjgY8wgYwwCQYDVR0TBAIwADAdBgNVHQ4E
FgQUspUiSJWzrTSzwqCVwB4eo6y3qSYwPgYDVR0jBDcwNYAUUd2/iyLALbfbSOqg
rOVsS4ucxmyhEqQQMA4xDDAKBgNVBAMMA2F3c4IJAKlG2zRqALPEMBMGA1UdJQQM
MAoGCCsGAQUFBwMCMAsGA1UdDwQEAwIHgDANBgkqhkiG9w0BAQsFAAOCAQEADLre
FWbn9ZlYaxGX5vwee4I/9O/vfN0fMYnoEJUKW/mdavX78mxiztHSynddZtYRwsTz
qyaIkoC+UEtSEX8GoqeBzyrm8z8Lz0pNqxperDdEy9Ci6ixNbRqTaiPZ2JwWF3iR
vdQhZD4fnJ4oPWPeWThO0fhbjZjolUMnqBG+Va/Bg8tnDNgZ+U2PoRqxR0C3I0oh
IKzK0uHCSXkgF9xUdS0HuacX7fEtHuiON4vNLJe/io2CYNthEUMNDtq/1R8lLUg6
rHbjk96dKuDcTuNK4WVJZ0dcjEWCzX8MYSnUrl+hcEEnjtf28mUg7xFCQO/wBM9n
asYjdY/X4CLQSC+AEw==
-----END CERTIFICATE-----
