Certificate:
    Data:
        Version: 3 (0x2)
        Serial Number:
            16:72:dc:c1:91:7c:0b:a0:9c:2f:b1:30:5c:15:05:9a
    Signature Algorithm: sha256WithRSAEncryption
        Issuer: CN=aws
        Validity
            Not Before: Jul  6 06:48:09 2019 GMT
            Not After : Jun 20 06:48:09 2022 GMT
        Subject: CN=server
        Subject Public Key Info:
            Public Key Algorithm: rsaEncryption
                Public-Key: (2048 bit)
                Modulus:
                    00:cf:11:45:19:31:1e:06:44:93:47:38:d6:67:b1:
                    22:62:2e:f0:19:c2:28:97:ef:12:82:ba:71:6c:57:
                    df:d2:bd:5d:b2:38:6d:c5:ac:09:55:e4:bc:4c:02:
                    6a:8c:57:99:8d:5e:6d:bb:d0:f8:b9:90:25:99:dc:
                    e2:34:b6:d4:c2:f2:d2:98:00:ae:b3:dd:e8:88:2b:
                    21:3c:67:6e:30:9e:ce:ca:87:58:4b:9e:fb:ec:52:
                    20:e1:27:17:bb:a3:df:d3:3f:cd:ca:83:fd:d6:73:
                    06:1c:57:40:85:67:fd:d4:75:b3:5b:28:bd:0a:d6:
                    20:1d:62:68:46:27:45:7d:ce:7a:fd:62:62:73:88:
                    77:51:02:2e:f3:fc:5d:0b:89:38:13:75:6b:86:c2:
                    27:b4:ca:dd:77:56:19:fb:ac:0b:57:0e:4e:5d:49:
                    d5:37:4d:89:0b:32:e3:ff:55:0f:76:88:97:29:e7:
                    e2:03:1e:19:cd:63:fe:16:c8:22:67:ea:cd:ed:a2:
                    f1:9f:2c:33:95:d4:32:37:29:f6:fe:3b:05:77:a5:
                    2a:c7:93:5a:de:5c:1d:61:93:cc:3e:e9:39:bd:a5:
                    40:70:8e:3d:3d:3c:ab:1d:e9:d6:d0:7d:e7:44:9f:
                    22:bf:0e:03:82:28:12:27:d4:0f:cc:ee:d0:d2:95:
                    6c:43
                Exponent: 65537 (0x10001)
        X509v3 extensions:
            X509v3 Basic Constraints: 
                CA:FALSE
            X509v3 Subject Key Identifier: 
                0F:F4:69:79:90:C3:D5:01:08:7A:32:F7:AF:B4:F3:82:7B:3F:AD:54
            X509v3 Authority Key Identifier: 
                keyid:51:DD:BF:8B:22:C0:2D:B7:DB:48:EA:A0:AC:E5:6C:4B:8B:9C:C6:6C
                DirName:/CN=aws
                serial:A9:46:DB:34:6A:00:B3:C4

            X509v3 Extended Key Usage: 
                TLS Web Server Authentication
            X509v3 Key Usage: 
                Digital Signature, Key Encipherment
            X509v3 Subject Alternative Name: 
                DNS:server
    Signature Algorithm: sha256WithRSAEncryption
         90:40:2e:78:1a:5d:ee:fa:14:c0:7f:53:ef:4e:30:b1:b7:9a:
         3e:f6:50:21:de:f8:6c:a9:60:a6:60:09:fe:7e:b3:a3:4a:e6:
         07:7e:17:3d:03:0a:6a:35:9a:87:e1:31:81:18:cb:a9:ea:48:
         61:fc:d9:ae:a9:fe:f0:ea:23:6a:83:1a:a0:17:7b:0e:e0:bb:
         6c:ab:89:92:76:77:3d:c7:9d:dc:6f:aa:21:5c:2f:4e:3d:24:
         2e:db:ec:7a:dc:33:64:3d:c1:50:31:03:7b:f8:20:36:e3:80:
         80:89:9a:88:35:e6:49:ba:5d:55:41:af:91:86:f3:1b:35:7c:
         d4:f0:39:8c:fb:6d:8d:c2:bf:90:4b:6c:2d:d1:42:bf:ce:13:
         82:a2:5b:4e:67:0a:25:c5:e6:2d:81:b9:b3:52:02:00:0c:e6:
         a6:54:05:20:a0:80:31:e7:25:3f:aa:b7:c0:b1:62:6a:90:22:
         30:bc:21:b5:32:77:15:af:d1:1b:c1:b2:50:ba:ef:ce:b5:2a:
         43:fe:9d:23:e1:d3:33:b0:da:32:b5:38:1f:4c:b5:53:a7:9f:
         da:ec:b6:54:bf:05:1b:f7:7e:6c:88:2d:8d:62:97:70:ba:29:
         df:11:2b:22:da:fc:8c:bc:a2:a0:f5:33:91:8d:70:2d:4c:54:
         95:fb:15:12
-----BEGIN CERTIFICATE-----
MIIDTDCCAjSgAwIBAgIQFnLcwZF8C6CcL7EwXBUFmjANBgkqhkiG9w0BAQsFADAO
MQwwCgYDVQQDDANhd3MwHhcNMTkwNzA2MDY0ODA5WhcNMjIwNjIwMDY0ODA5WjAR
MQ8wDQYDVQQDDAZzZXJ2ZXIwggEiMA0GCSqGSIb3DQEBAQUAA4IBDwAwggEKAoIB
AQDPEUUZMR4GRJNHONZnsSJiLvAZwiiX7xKCunFsV9/SvV2yOG3FrAlV5LxMAmqM
V5mNXm270Pi5kCWZ3OI0ttTC8tKYAK6z3eiIKyE8Z24wns7Kh1hLnvvsUiDhJxe7
o9/TP83Kg/3WcwYcV0CFZ/3UdbNbKL0K1iAdYmhGJ0V9znr9YmJziHdRAi7z/F0L
iTgTdWuGwie0yt13Vhn7rAtXDk5dSdU3TYkLMuP/VQ92iJcp5+IDHhnNY/4WyCJn
6s3tovGfLDOV1DI3Kfb+OwV3pSrHk1reXB1hk8w+6Tm9pUBwjj09PKsd6dbQfedE
nyK/DgOCKBIn1A/M7tDSlWxDAgMBAAGjgaIwgZ8wCQYDVR0TBAIwADAdBgNVHQ4E
FgQUD/RpeZDD1QEIejL3r7Tzgns/rVQwPgYDVR0jBDcwNYAUUd2/iyLALbfbSOqg
rOVsS4ucxmyhEqQQMA4xDDAKBgNVBAMMA2F3c4IJAKlG2zRqALPEMBMGA1UdJQQM
MAoGCCsGAQUFBwMBMAsGA1UdDwQEAwIFoDARBgNVHREECjAIggZzZXJ2ZXIwDQYJ
KoZIhvcNAQELBQADggEBAJBALngaXe76FMB/U+9OMLG3mj72UCHe+GypYKZgCf5+
s6NK5gd+Fz0DCmo1mofhMYEYy6nqSGH82a6p/vDqI2qDGqAXew7gu2yriZJ2dz3H
ndxvqiFcL049JC7b7HrcM2Q9wVAxA3v4IDbjgICJmog15km6XVVBr5GG8xs1fNTw
OYz7bY3Cv5BLbC3RQr/OE4KiW05nCiXF5i2BubNSAgAM5qZUBSCggDHnJT+qt8Cx
YmqQIjC8IbUydxWv0RvBslC67861KkP+nSPh0zOw2jK1OB9MtVOnn9rstlS/BRv3
fmyILY1il3C6Kd8RKyLa/Iy8oqD1M5GNcC1MVJX7FRI=
-----END CERTIFICATE-----
